target datalayout = "e-m:e-p270:32:32-p271:32:32-p272:64:64-i64:64-i128:128-f80:128-n8:16:32:64-S128"
target triple = "x86_64-unknown-linux-gnu"

%class.b3PrefixScanCL = type { ptr, ptr, ptr, ptr, ptr, ptr }
%class.b3OpenCLArray = type <{ ptr, i64, i64, ptr, ptr, ptr, i8, i8, [6 x i8] }>

@_ZTV14b3PrefixScanCL = dso_local unnamed_addr constant { [4 x ptr] } { [4 x ptr] [ptr null, ptr @_ZTI14b3PrefixScanCL, ptr @_ZN14b3PrefixScanCLD1Ev, ptr @_ZN14b3PrefixScanCLD0Ev] }, align 8
@_ZL19prefixScanKernelsCL = internal global ptr @.str.7, align 8
@.str = private unnamed_addr constant [66 x i8] c"src/Bullet3OpenCL/ParallelPrimitives/kernels/PrefixScanKernels.cl\00", align 1
@.str.1 = private unnamed_addr constant [16 x i8] c"LocalScanKernel\00", align 1
@.str.2 = private unnamed_addr constant [19 x i8] c"TopLevelScanKernel\00", align 1
@.str.3 = private unnamed_addr constant [16 x i8] c"AddOffsetKernel\00", align 1
@_ZTV13b3OpenCLArrayIjE = linkonce_odr dso_local unnamed_addr constant { [4 x ptr] } { [4 x ptr] [ptr null, ptr @_ZTI13b3OpenCLArrayIjE, ptr @_ZN13b3OpenCLArrayIjED2Ev, ptr @_ZN13b3OpenCLArrayIjED0Ev] }, comdat, align 8

; Function Attrs: mustprogress uwtable
define linkonce_odr dso_local noundef ptr @_ZN13b3OpenCLUtils25compileCLKernelFromStringEP11_cl_contextP13_cl_device_idPKcS5_PiP11_cl_programS5_(ptr noundef %clContext, ptr noundef %device, ptr noundef %kernelSource, ptr noundef %kernelName, ptr noundef %pErrNum, ptr noundef %prog, ptr noundef %additionalMacros) #0 comdat align 2 {
entry:
  %clContext.addr = alloca ptr, align 8
  %device.addr = alloca ptr, align 8
  %kernelSource.addr = alloca ptr, align 8
  %kernelName.addr = alloca ptr, align 8
  %pErrNum.addr = alloca ptr, align 8
  %prog.addr = alloca ptr, align 8
  %additionalMacros.addr = alloca ptr, align 8
  store ptr %clContext, ptr %clContext.addr, align 8
  store ptr %device, ptr %device.addr, align 8
  store ptr %kernelSource, ptr %kernelSource.addr, align 8
  store ptr %kernelName, ptr %kernelName.addr, align 8
  store ptr %pErrNum, ptr %pErrNum.addr, align 8
  store ptr %prog, ptr %prog.addr, align 8
  store ptr %additionalMacros, ptr %additionalMacros.addr, align 8
  %0 = load ptr, ptr %clContext.addr, align 8
  %1 = load ptr, ptr %device.addr, align 8
  %2 = load ptr, ptr %kernelSource.addr, align 8
  %3 = load ptr, ptr %kernelName.addr, align 8
  %4 = load ptr, ptr %pErrNum.addr, align 8
  %5 = load ptr, ptr %prog.addr, align 8
  %6 = load ptr, ptr %additionalMacros.addr, align 8
  %call = call ptr @b3OpenCLUtils_compileCLKernelFromString(ptr noundef %0, ptr noundef %1, ptr noundef %2, ptr noundef %3, ptr noundef %4, ptr noundef %5, ptr noundef %6)
  ret ptr %call
}

; Function Attrs: mustprogress uwtable
define linkonce_odr dso_local noundef ptr @_ZN13b3OpenCLUtils26compileCLProgramFromStringEP11_cl_contextP13_cl_device_idPKcPiS5_S5_b(ptr noundef %clContext, ptr noundef %device, ptr noundef %kernelSource, ptr noundef %pErrNum, ptr noundef %additionalMacros, ptr noundef %srcFileNameForCaching, i1 noundef zeroext %disableBinaryCaching) #0 comdat align 2 {
entry:
  %clContext.addr = alloca ptr, align 8
  %device.addr = alloca ptr, align 8
  %kernelSource.addr = alloca ptr, align 8
  %pErrNum.addr = alloca ptr, align 8
  %additionalMacros.addr = alloca ptr, align 8
  %srcFileNameForCaching.addr = alloca ptr, align 8
  %disableBinaryCaching.addr = alloca i8, align 1
  store ptr %clContext, ptr %clContext.addr, align 8
  store ptr %device, ptr %device.addr, align 8
  store ptr %kernelSource, ptr %kernelSource.addr, align 8
  store ptr %pErrNum, ptr %pErrNum.addr, align 8
  store ptr %additionalMacros, ptr %additionalMacros.addr, align 8
  store ptr %srcFileNameForCaching, ptr %srcFileNameForCaching.addr, align 8
  %frombool = zext i1 %disableBinaryCaching to i8
  store i8 %frombool, ptr %disableBinaryCaching.addr, align 1
  %0 = load ptr, ptr %clContext.addr, align 8
  %1 = load ptr, ptr %device.addr, align 8
  %2 = load ptr, ptr %kernelSource.addr, align 8
  %3 = load ptr, ptr %pErrNum.addr, align 8
  %4 = load ptr, ptr %additionalMacros.addr, align 8
  %5 = load ptr, ptr %srcFileNameForCaching.addr, align 8
  %6 = load i8, ptr %disableBinaryCaching.addr, align 1
  %tobool = trunc i8 %6 to i1
  %call = call ptr @b3OpenCLUtils_compileCLProgramFromString(ptr noundef %0, ptr noundef %1, ptr noundef %2, ptr noundef %3, ptr noundef %4, ptr noundef %5, i1 noundef zeroext %tobool)
  ret ptr %call
}

; Function Attrs: mustprogress uwtable
define linkonce_odr dso_local void @_ZN13b3OpenCLArrayIjEC2EP11_cl_contextP17_cl_command_queuemb(ptr noundef nonnull align 8 dereferenceable(50) %this, ptr noundef %ctx, ptr noundef %queue, i64 noundef %initialCapacity, i1 noundef zeroext %allowGrowingCapacity) unnamed_addr #0 comdat align 2 {
entry:
  %this.addr = alloca ptr, align 8
  %ctx.addr = alloca ptr, align 8
  %queue.addr = alloca ptr, align 8
  %initialCapacity.addr = alloca i64, align 8
  %allowGrowingCapacity.addr = alloca i8, align 1
  store ptr %this, ptr %this.addr, align 8
  store ptr %ctx, ptr %ctx.addr, align 8
  store ptr %queue, ptr %queue.addr, align 8
  store i64 %initialCapacity, ptr %initialCapacity.addr, align 8
  %frombool = zext i1 %allowGrowingCapacity to i8
  store i8 %frombool, ptr %allowGrowingCapacity.addr, align 1
  %this1 = load ptr, ptr %this.addr, align 8
  store ptr getelementptr inbounds ({ [4 x ptr] }, ptr @_ZTV13b3OpenCLArrayIjE, i32 0, i32 0, i32 2), ptr %this1, align 8
  %m_size = getelementptr inbounds %class.b3OpenCLArray, ptr %this1, i32 0, i32 1
  store i64 0, ptr %m_size, align 8
  %m_capacity = getelementptr inbounds %class.b3OpenCLArray, ptr %this1, i32 0, i32 2
  store i64 0, ptr %m_capacity, align 8
  %m_clBuffer = getelementptr inbounds %class.b3OpenCLArray, ptr %this1, i32 0, i32 3
  store ptr null, ptr %m_clBuffer, align 8
  %m_clContext = getelementptr inbounds %class.b3OpenCLArray, ptr %this1, i32 0, i32 4
  %0 = load ptr, ptr %ctx.addr, align 8
  store ptr %0, ptr %m_clContext, align 8
  %m_commandQueue = getelementptr inbounds %class.b3OpenCLArray, ptr %this1, i32 0, i32 5
  %1 = load ptr, ptr %queue.addr, align 8
  store ptr %1, ptr %m_commandQueue, align 8
  %m_ownsMemory = getelementptr inbounds %class.b3OpenCLArray, ptr %this1, i32 0, i32 6
  store i8 1, ptr %m_ownsMemory, align 8
  %m_allowGrowingCapacity = getelementptr inbounds %class.b3OpenCLArray, ptr %this1, i32 0, i32 7
  store i8 1, ptr %m_allowGrowingCapacity, align 1
  %2 = load i64, ptr %initialCapacity.addr, align 8
  %tobool = icmp ne i64 %2, 0
  br i1 %tobool, label %if.then, label %if.end

if.then:                                          ; preds = %entry
  %3 = load i64, ptr %initialCapacity.addr, align 8
  %call = call noundef zeroext i1 @_ZN13b3OpenCLArrayIjE7reserveEmb(ptr noundef nonnull align 8 dereferenceable(50) %this1, i64 noundef %3, i1 noundef zeroext true)
  br label %if.end

if.end:                                           ; preds = %if.then, %entry
  %4 = load i8, ptr %allowGrowingCapacity.addr, align 1
  %tobool2 = trunc i8 %4 to i1
  %m_allowGrowingCapacity3 = getelementptr inbounds %class.b3OpenCLArray, ptr %this1, i32 0, i32 7
  %frombool4 = zext i1 %tobool2 to i8
  store i8 %frombool4, ptr %m_allowGrowingCapacity3, align 1
  ret void
}

; Function Attrs: mustprogress uwtable
define dso_local void @_ZN14b3PrefixScanCLC2EP11_cl_contextP13_cl_device_idP17_cl_command_queuei(ptr noundef nonnull align 8 dereferenceable(48) %this, ptr noundef %ctx, ptr noundef %device, ptr noundef %queue, i32 noundef %size) unnamed_addr #0 align 2 personality ptr @__gxx_personality_v0 {
entry:
  %this.addr = alloca ptr, align 8
  %ctx.addr = alloca ptr, align 8
  %device.addr = alloca ptr, align 8
  %queue.addr = alloca ptr, align 8
  %size.addr = alloca i32, align 4
  %scanKernelSource = alloca ptr, align 8
  %pErrNum = alloca i32, align 4
  %additionalMacros = alloca ptr, align 8
  %exn.slot = alloca ptr, align 8
  %ehselector.slot = alloca i32, align 4
  %scanProg = alloca ptr, align 8
  store ptr %this, ptr %this.addr, align 8
  store ptr %ctx, ptr %ctx.addr, align 8
  store ptr %device, ptr %device.addr, align 8
  store ptr %queue, ptr %queue.addr, align 8
  store i32 %size, ptr %size.addr, align 4
  %this1 = load ptr, ptr %this.addr, align 8
  store ptr getelementptr inbounds ({ [4 x ptr] }, ptr @_ZTV14b3PrefixScanCL, i32 0, i32 0, i32 2), ptr %this1, align 8
  %m_commandQueue = getelementptr inbounds %class.b3PrefixScanCL, ptr %this1, i32 0, i32 1
  %0 = load ptr, ptr %queue.addr, align 8
  store ptr %0, ptr %m_commandQueue, align 8
  %1 = load ptr, ptr @_ZL19prefixScanKernelsCL, align 8
  store ptr %1, ptr %scanKernelSource, align 8
  store ptr null, ptr %additionalMacros, align 8
  %call = call noalias noundef nonnull ptr @_Znwm(i64 noundef 56) #8
  %2 = load ptr, ptr %ctx.addr, align 8
  %3 = load ptr, ptr %queue.addr, align 8
  %4 = load i32, ptr %size.addr, align 4
  %conv = sext i32 %4 to i64
  invoke void @_ZN13b3OpenCLArrayIjEC2EP11_cl_contextP17_cl_command_queuemb(ptr noundef nonnull align 8 dereferenceable(50) %call, ptr noundef %2, ptr noundef %3, i64 noundef %conv, i1 noundef zeroext true)
          to label %invoke.cont unwind label %lpad

invoke.cont:                                      ; preds = %entry
  %m_workBuffer = getelementptr inbounds %class.b3PrefixScanCL, ptr %this1, i32 0, i32 5
  store ptr %call, ptr %m_workBuffer, align 8
  %5 = load ptr, ptr %ctx.addr, align 8
  %6 = load ptr, ptr %device.addr, align 8
  %7 = load ptr, ptr %scanKernelSource, align 8
  %8 = load ptr, ptr %additionalMacros, align 8
  %call2 = call noundef ptr @_ZN13b3OpenCLUtils26compileCLProgramFromStringEP11_cl_contextP13_cl_device_idPKcPiS5_S5_b(ptr noundef %5, ptr noundef %6, ptr noundef %7, ptr noundef %pErrNum, ptr noundef %8, ptr noundef @.str, i1 noundef zeroext false)
  store ptr %call2, ptr %scanProg, align 8
  %9 = load ptr, ptr %ctx.addr, align 8
  %10 = load ptr, ptr %device.addr, align 8
  %11 = load ptr, ptr %scanKernelSource, align 8
  %12 = load ptr, ptr %scanProg, align 8
  %13 = load ptr, ptr %additionalMacros, align 8
  %call3 = call noundef ptr @_ZN13b3OpenCLUtils25compileCLKernelFromStringEP11_cl_contextP13_cl_device_idPKcS5_PiP11_cl_programS5_(ptr noundef %9, ptr noundef %10, ptr noundef %11, ptr noundef @.str.1, ptr noundef %pErrNum, ptr noundef %12, ptr noundef %13)
  %m_localScanKernel = getelementptr inbounds %class.b3PrefixScanCL, ptr %this1, i32 0, i32 2
  store ptr %call3, ptr %m_localScanKernel, align 8
  %14 = load ptr, ptr %ctx.addr, align 8
  %15 = load ptr, ptr %device.addr, align 8
  %16 = load ptr, ptr %scanKernelSource, align 8
  %17 = load ptr, ptr %scanProg, align 8
  %18 = load ptr, ptr %additionalMacros, align 8
  %call4 = call noundef ptr @_ZN13b3OpenCLUtils25compileCLKernelFromStringEP11_cl_contextP13_cl_device_idPKcS5_PiP11_cl_programS5_(ptr noundef %14, ptr noundef %15, ptr noundef %16, ptr noundef @.str.2, ptr noundef %pErrNum, ptr noundef %17, ptr noundef %18)
  %m_blockSumKernel = getelementptr inbounds %class.b3PrefixScanCL, ptr %this1, i32 0, i32 3
  store ptr %call4, ptr %m_blockSumKernel, align 8
  %19 = load ptr, ptr %ctx.addr, align 8
  %20 = load ptr, ptr %device.addr, align 8
  %21 = load ptr, ptr %scanKernelSource, align 8
  %22 = load ptr, ptr %scanProg, align 8
  %23 = load ptr, ptr %additionalMacros, align 8
  %call5 = call noundef ptr @_ZN13b3OpenCLUtils25compileCLKernelFromStringEP11_cl_contextP13_cl_device_idPKcS5_PiP11_cl_programS5_(ptr noundef %19, ptr noundef %20, ptr noundef %21, ptr noundef @.str.3, ptr noundef %pErrNum, ptr noundef %22, ptr noundef %23)
  %m_propagationKernel = getelementptr inbounds %class.b3PrefixScanCL, ptr %this1, i32 0, i32 4
  store ptr %call5, ptr %m_propagationKernel, align 8
  ret void

lpad:                                             ; preds = %entry
  %24 = landingpad { ptr, i32 }
          cleanup
  %25 = extractvalue { ptr, i32 } %24, 0
  store ptr %25, ptr %exn.slot, align 8
  %26 = extractvalue { ptr, i32 } %24, 1
  store i32 %26, ptr %ehselector.slot, align 4
  call void @_ZdlPv(ptr noundef %call) #9
  br label %eh.resume

eh.resume:                                        ; preds = %lpad
  %exn = load ptr, ptr %exn.slot, align 8
  %sel = load i32, ptr %ehselector.slot, align 4
  %lpad.val = insertvalue { ptr, i32 } poison, ptr %exn, 0
  %lpad.val6 = insertvalue { ptr, i32 } %lpad.val, i32 %sel, 1
  resume { ptr, i32 } %lpad.val6
}