; Function Attrs: mustprogress uwtable
define dso_local void @_ZN14b3PrefixScanCLC2EP11_cl_contextP13_cl_device_idP17_cl_command_queuei(ptr nocapture noundef nonnull writeonly align 8 dereferenceable(48) %this, ptr noundef %ctx, ptr noundef %device, ptr noundef %queue, i32 noundef %size) unnamed_addr #0 align 2 personality ptr @__gxx_personality_v0 {
entry:
  %pErrNum = alloca i32, align 4
  store ptr getelementptr inbounds ({ [4 x ptr] }, ptr @_ZTV14b3PrefixScanCL, i64 0, i32 0, i64 2), ptr %this, align 8
  %m_commandQueue = getelementptr inbounds i8, ptr %this, i64 8
  store ptr %queue, ptr %m_commandQueue, align 8
  %call = tail call noalias noundef nonnull dereferenceable(56) ptr @_Znwm(i64 noundef 56) #13
  store ptr getelementptr inbounds ({ [4 x ptr] }, ptr @_ZTV13b3OpenCLArrayIjE, i64 0, i32 0, i64 2), ptr %call, align 8
  %m_size.i = getelementptr inbounds i8, ptr %call, i64 8
  %m_clContext.i = getelementptr inbounds i8, ptr %call, i64 32
  tail call void @llvm.memset.p0.i64(ptr noundef nonnull align 8 dereferenceable(24) %m_size.i, i8 0, i64 24, i1 false)
  store ptr %ctx, ptr %m_clContext.i, align 8
  %m_commandQueue.i = getelementptr inbounds i8, ptr %call, i64 40
  store ptr %queue, ptr %m_commandQueue.i, align 8
  %m_ownsMemory.i = getelementptr inbounds i8, ptr %call, i64 48
  store i8 1, ptr %m_ownsMemory.i, align 8
  %m_allowGrowingCapacity.i = getelementptr inbounds i8, ptr %call, i64 49
  store i8 1, ptr %m_allowGrowingCapacity.i, align 1
  %tobool.not.i = icmp eq i32 %size, 0
  br i1 %tobool.not.i, label %invoke.cont, label %if.then.i

if.then.i:                                        ; preds = %entry
  %conv = sext i32 %size to i64
  %call.i17 = invoke noundef zeroext i1 @_ZN13b3OpenCLArrayIjE7reserveEmb(ptr noundef nonnull align 8 dereferenceable(50) %call, i64 noundef %conv, i1 noundef zeroext true)
          to label %invoke.cont unwind label %lpad

invoke.cont:                                      ; preds = %entry, %if.then.i
  store i8 1, ptr %m_allowGrowingCapacity.i, align 1
  %m_workBuffer = getelementptr inbounds i8, ptr %this, i64 40
  store ptr %call, ptr %m_workBuffer, align 8
  %call.i = call noundef ptr @b3OpenCLUtils_compileCLProgramFromString(ptr noundef %ctx, ptr noundef %device, ptr noundef nonnull @.str.7, ptr noundef nonnull %pErrNum, ptr noundef null, ptr noundef nonnull @.str, i1 noundef zeroext false)
  %call.i18 = call noundef ptr @b3OpenCLUtils_compileCLKernelFromString(ptr noundef %ctx, ptr noundef %device, ptr noundef nonnull @.str.7, ptr noundef nonnull @.str.1, ptr noundef nonnull %pErrNum, ptr noundef %call.i, ptr noundef null)
  %m_localScanKernel = getelementptr inbounds i8, ptr %this, i64 16
  store ptr %call.i18, ptr %m_localScanKernel, align 8
  %call.i19 = call noundef ptr @b3OpenCLUtils_compileCLKernelFromString(ptr noundef %ctx, ptr noundef %device, ptr noundef nonnull @.str.7, ptr noundef nonnull @.str.2, ptr noundef nonnull %pErrNum, ptr noundef %call.i, ptr noundef null)
  %m_blockSumKernel = getelementptr inbounds i8, ptr %this, i64 24
  store ptr %call.i19, ptr %m_blockSumKernel, align 8
  %call.i20 = call noundef ptr @b3OpenCLUtils_compileCLKernelFromString(ptr noundef %ctx, ptr noundef %device, ptr noundef nonnull @.str.7, ptr noundef nonnull @.str.3, ptr noundef nonnull %pErrNum, ptr noundef %call.i, ptr noundef null)
  %m_propagationKernel = getelementptr inbounds i8, ptr %this, i64 32
  store ptr %call.i20, ptr %m_propagationKernel, align 8
  ret void

lpad:                                             ; preds = %if.then.i
  %0 = landingpad { ptr, i32 }
          cleanup
  tail call void @_ZdlPv(ptr noundef nonnull %call) #14
  resume { ptr, i32 } %0
}